target datalayout = "e-m:e-p270:32:32-p271:32:32-p272:64:64-i64:64-i128:128-f80:128-n8:16:32:64-S128"
target triple = "x86_64-pc-linux-gnu"

%struct.CONF_VALUE = type { ptr, ptr, ptr }

@.str = private unnamed_addr constant [32 x i8] c"../openssl/crypto/x509/v3_utl.c\00", align 1
@.str.1 = private unnamed_addr constant [5 x i8] c"TRUE\00", align 1
@.str.2 = private unnamed_addr constant [6 x i8] c"FALSE\00", align 1
@.str.3 = private unnamed_addr constant [5 x i8] c"true\00", align 1
@.str.4 = private unnamed_addr constant [2 x i8] c"Y\00", align 1
@.str.5 = private unnamed_addr constant [2 x i8] c"y\00", align 1
@.str.6 = private unnamed_addr constant [4 x i8] c"YES\00", align 1
@.str.7 = private unnamed_addr constant [4 x i8] c"yes\00", align 1
@.str.8 = private unnamed_addr constant [6 x i8] c"false\00", align 1
@.str.9 = private unnamed_addr constant [2 x i8] c"N\00", align 1
@.str.10 = private unnamed_addr constant [2 x i8] c"n\00", align 1
@.str.11 = private unnamed_addr constant [3 x i8] c"NO\00", align 1
@.str.12 = private unnamed_addr constant [3 x i8] c"no\00", align 1
@__func__.X509V3_get_value_bool = private unnamed_addr constant [22 x i8] c"X509V3_get_value_bool\00", align 1
@.str.13 = private unnamed_addr constant [6 x i8] c"name=\00", align 1
@.str.14 = private unnamed_addr constant [9 x i8] c", value=\00", align 1

; Function Attrs: nounwind uwtable
define i32 @X509V3_get_value_bool(ptr noundef %0, ptr noundef %1) #0 {
  %3 = alloca i32, align 4
  %4 = alloca ptr, align 8
  %5 = alloca ptr, align 8
  %6 = alloca ptr, align 8
  %7 = alloca i32, align 4
  store ptr %0, ptr %4, align 8, !tbaa !12
  store ptr %1, ptr %5, align 8, !tbaa !30
  call void @llvm.lifetime.start.p0(i64 8, ptr %6) #8
  %8 = load ptr, ptr %4, align 8, !tbaa !12
  %9 = getelementptr inbounds nuw %struct.CONF_VALUE, ptr %8, i32 0, i32 2
  %10 = load ptr, ptr %9, align 8, !tbaa !20
  store ptr %10, ptr %6, align 8, !tbaa !3
  %11 = icmp eq ptr %10, null
  br i1 %11, label %12, label %13

12:                                               ; preds = %2
  br label %66

13:                                               ; preds = %2
  %14 = load ptr, ptr %6, align 8, !tbaa !3
  %15 = call i32 @strcmp(ptr noundef %14, ptr noundef @.str.1) #7
  %16 = icmp eq i32 %15, 0
  br i1 %16, label %37, label %17

17:                                               ; preds = %13
  %18 = load ptr, ptr %6, align 8, !tbaa !3
  %19 = call i32 @strcmp(ptr noundef %18, ptr noundef @.str.3) #7
  %20 = icmp eq i32 %19, 0
  br i1 %20, label %37, label %21

21:                                               ; preds = %17
  %22 = load ptr, ptr %6, align 8, !tbaa !3
  %23 = call i32 @strcmp(ptr noundef %22, ptr noundef @.str.4) #7
  %24 = icmp eq i32 %23, 0
  br i1 %24, label %37, label %25

25:                                               ; preds = %21
  %26 = load ptr, ptr %6, align 8, !tbaa !3
  %27 = call i32 @strcmp(ptr noundef %26, ptr noundef @.str.5) #7
  %28 = icmp eq i32 %27, 0
  br i1 %28, label %37, label %29

29:                                               ; preds = %25
  %30 = load ptr, ptr %6, align 8, !tbaa !3
  %31 = call i32 @strcmp(ptr noundef %30, ptr noundef @.str.6) #7
  %32 = icmp eq i32 %31, 0
  br i1 %32, label %37, label %33

33:                                               ; preds = %29
  %34 = load ptr, ptr %6, align 8, !tbaa !3
  %35 = call i32 @strcmp(ptr noundef %34, ptr noundef @.str.7) #7
  %36 = icmp eq i32 %35, 0
  br i1 %36, label %37, label %39

37:                                               ; preds = %33, %29, %25, %21, %17, %13
  %38 = load ptr, ptr %5, align 8, !tbaa !30
  store i32 255, ptr %38, align 4, !tbaa !15
  store i32 1, ptr %3, align 4
  store i32 1, ptr %7, align 4
  br label %73

39:                                               ; preds = %33
  %40 = load ptr, ptr %6, align 8, !tbaa !3
  %41 = call i32 @strcmp(ptr noundef %40, ptr noundef @.str.2) #7
  %42 = icmp eq i32 %41, 0
  br i1 %42, label %63, label %43

43:                                               ; preds = %39
  %44 = load ptr, ptr %6, align 8, !tbaa !3
  %45 = call i32 @strcmp(ptr noundef %44, ptr noundef @.str.8) #7
  %46 = icmp eq i32 %45, 0
  br i1 %46, label %63, label %47

47:                                               ; preds = %43
  %48 = load ptr, ptr %6, align 8, !tbaa !3
  %49 = call i32 @strcmp(ptr noundef %48, ptr noundef @.str.9) #7
  %50 = icmp eq i32 %49, 0
  br i1 %50, label %63, label %51

51:                                               ; preds = %47
  %52 = load ptr, ptr %6, align 8, !tbaa !3
  %53 = call i32 @strcmp(ptr noundef %52, ptr noundef @.str.10) #7
  %54 = icmp eq i32 %53, 0
  br i1 %54, label %63, label %55

55:                                               ; preds = %51
  %56 = load ptr, ptr %6, align 8, !tbaa !3
  %57 = call i32 @strcmp(ptr noundef %56, ptr noundef @.str.11) #7
  %58 = icmp eq i32 %57, 0
  br i1 %58, label %63, label %59

59:                                               ; preds = %55
  %60 = load ptr, ptr %6, align 8, !tbaa !3
  %61 = call i32 @strcmp(ptr noundef %60, ptr noundef @.str.12) #7
  %62 = icmp eq i32 %61, 0
  br i1 %62, label %63, label %65

63:                                               ; preds = %59, %55, %51, %47, %43, %39
  %64 = load ptr, ptr %5, align 8, !tbaa !30
  store i32 0, ptr %64, align 4, !tbaa !15
  store i32 1, ptr %3, align 4
  store i32 1, ptr %7, align 4
  br label %73

65:                                               ; preds = %59
  br label %66

66:                                               ; preds = %65, %12
  call void @ERR_new()
  call void @ERR_set_debug(ptr noundef @.str, i32 noundef 291, ptr noundef @__func__.X509V3_get_value_bool)
  call void (i32, i32, ptr, ...) @ERR_set_error(i32 noundef 34, i32 noundef 104, ptr noundef null)
  %67 = load ptr, ptr %4, align 8, !tbaa !12
  %68 = getelementptr inbounds nuw %struct.CONF_VALUE, ptr %67, i32 0, i32 1
  %69 = load ptr, ptr %68, align 8, !tbaa !19
  %70 = load ptr, ptr %4, align 8, !tbaa !12
  %71 = getelementptr inbounds nuw %struct.CONF_VALUE, ptr %70, i32 0, i32 2
  %72 = load ptr, ptr %71, align 8, !tbaa !20
  call void (i32, ...) @ERR_add_error_data(i32 noundef 4, ptr noundef @.str.13, ptr noundef %69, ptr noundef @.str.14, ptr noundef %72)
  store i32 0, ptr %3, align 4
  store i32 1, ptr %7, align 4
  br label %73

73:                                               ; preds = %66, %63, %37
  call void @llvm.lifetime.end.p0(i64 8, ptr %6) #8
  %74 = load i32, ptr %3, align 4
  ret i32 %74
}