; Function Attrs: nounwind uwtable
define range(i32 0, 2) i32 @X509V3_get_value_bool(ptr noundef readonly captures(none) %0, ptr noundef writeonly captures(none) %1) local_unnamed_addr #0 {
  %3 = getelementptr inbounds nuw i8, ptr %0, i64 16
  %4 = load ptr, ptr %3, align 8, !tbaa !12
  %5 = icmp eq ptr %4, null
  br i1 %5, label %.tail34.thread, label %6

6:                                                ; preds = %2
  %7 = tail call i32 @strcmp(ptr noundef nonnull dereferenceable(1) %4, ptr noundef nonnull dereferenceable(5) @.str.1) #11
  %8 = icmp eq i32 %7, 0
  br i1 %8, label %24, label %9

9:                                                ; preds = %6
  %10 = tail call i32 @strcmp(ptr noundef nonnull dereferenceable(1) %4, ptr noundef nonnull dereferenceable(5) @.str.3) #11
  %11 = icmp eq i32 %10, 0
  br i1 %11, label %24, label %sub_0

sub_0:                                            ; preds = %9
  %12 = load i8, ptr %4, align 1
  switch i8 %12, label %.tail18.thread [
    i8 89, label %.tail
    i8 121, label %.tail18
  ]

.tail:                                            ; preds = %sub_0
  %13 = getelementptr inbounds nuw i8, ptr %4, i64 1
  %14 = load i8, ptr %13, align 1
  %15 = icmp eq i8 %14, 0
  br i1 %15, label %24, label %.tail18.thread

.tail18:                                          ; preds = %sub_0
  %16 = getelementptr inbounds nuw i8, ptr %4, i64 1
  %17 = load i8, ptr %16, align 1
  %18 = icmp eq i8 %17, 0
  br i1 %18, label %24, label %.tail18.thread

.tail18.thread:                                   ; preds = %sub_0, %.tail, %.tail18
  %19 = tail call i32 @strcmp(ptr noundef nonnull dereferenceable(1) %4, ptr noundef nonnull dereferenceable(4) @.str.6) #11
  %20 = icmp eq i32 %19, 0
  br i1 %20, label %24, label %21

21:                                               ; preds = %.tail18.thread
  %22 = tail call i32 @strcmp(ptr noundef nonnull dereferenceable(1) %4, ptr noundef nonnull dereferenceable(4) @.str.7) #11
  %23 = icmp eq i32 %22, 0
  br i1 %23, label %24, label %25

24:                                               ; preds = %21, %.tail18.thread, %.tail18, %.tail, %9, %6
  store i32 255, ptr %1, align 4, !tbaa !20
  br label %51

25:                                               ; preds = %21
  %26 = tail call i32 @strcmp(ptr noundef nonnull dereferenceable(1) %4, ptr noundef nonnull dereferenceable(6) @.str.2) #11
  %27 = icmp eq i32 %26, 0
  br i1 %27, label %47, label %28

28:                                               ; preds = %25
  %29 = tail call i32 @strcmp(ptr noundef nonnull dereferenceable(1) %4, ptr noundef nonnull dereferenceable(6) @.str.8) #11
  %30 = icmp eq i32 %29, 0
  br i1 %30, label %47, label %sub_023

sub_023:                                          ; preds = %28
  switch i8 %12, label %.tail34.thread [
    i8 78, label %.tail22
    i8 110, label %.tail26
  ]

.tail22:                                          ; preds = %sub_023
  %31 = getelementptr inbounds nuw i8, ptr %4, i64 1
  %32 = load i8, ptr %31, align 1
  %33 = icmp eq i8 %32, 0
  br i1 %33, label %47, label %sub_132

.tail26:                                          ; preds = %sub_023
  %34 = getelementptr inbounds nuw i8, ptr %4, i64 1
  %35 = load i8, ptr %34, align 1
  %36 = icmp eq i8 %35, 0
  br i1 %36, label %47, label %sub_136

sub_132:                                          ; preds = %.tail22
  %37 = getelementptr inbounds nuw i8, ptr %4, i64 1
  %38 = load i8, ptr %37, align 1
  %.not43 = icmp eq i8 %38, 79
  br i1 %.not43, label %.tail30, label %.tail34.thread

.tail30:                                          ; preds = %sub_132
  %39 = getelementptr inbounds nuw i8, ptr %4, i64 2
  %40 = load i8, ptr %39, align 1
  %41 = icmp eq i8 %40, 0
  br i1 %41, label %47, label %.tail34.thread

sub_136:                                          ; preds = %.tail26
  %42 = getelementptr inbounds nuw i8, ptr %4, i64 1
  %43 = load i8, ptr %42, align 1
  %.not45 = icmp eq i8 %43, 111
  br i1 %.not45, label %.tail34, label %.tail34.thread

.tail34:                                          ; preds = %sub_136
  %44 = getelementptr inbounds nuw i8, ptr %4, i64 2
  %45 = load i8, ptr %44, align 1
  %46 = icmp eq i8 %45, 0
  br i1 %46, label %47, label %.tail34.thread

47:                                               ; preds = %.tail34, %.tail30, %.tail26, %.tail22, %28, %25
  store i32 0, ptr %1, align 4, !tbaa !20
  br label %51

.tail34.thread:                                   ; preds = %.tail30, %sub_132, %sub_023, %sub_136, %.tail34, %2
  tail call void @ERR_new() #12
  tail call void @ERR_set_debug(ptr noundef nonnull @.str, i32 noundef 291, ptr noundef nonnull @__func__.X509V3_get_value_bool) #12
  tail call void (i32, i32, ptr, ...) @ERR_set_error(i32 noundef 34, i32 noundef 104, ptr noundef null) #12
  %48 = getelementptr inbounds nuw i8, ptr %0, i64 8
  %49 = load ptr, ptr %48, align 8, !tbaa !11
  %50 = load ptr, ptr %3, align 8, !tbaa !12
  tail call void (i32, ...) @ERR_add_error_data(i32 noundef 4, ptr noundef nonnull @.str.13, ptr noundef %49, ptr noundef nonnull @.str.14, ptr noundef %50) #12
  br label %51

51:                                               ; preds = %.tail34.thread, %47, %24
  %.0 = phi i32 [ 0, %.tail34.thread ], [ 1, %24 ], [ 1, %47 ]
  ret i32 %.0
}